(lp0
(S'cppflags'
p1
ccopy_reg
_reconstructor
p2
(cino.utils
SpaceList
p3
c__builtin__
list
p4
(lp5
S'-mmcu=atmega32u4'
p6
aS'-DF_CPU=16000000L'
p7
aS'-DARDUINO=101'
p8
aS'-I/usr/share/arduino/hardware/arduino/cores/arduino'
p9
aS'-ffunction-sections'
p10
aS'-fdata-sections'
p11
aS'-g'
p12
aS'-Os'
p13
aS'-w'
p14
aS'-DUSB_VID=0x2341'
p15
aS'-DUSB_PID=0x8036'
p16
aS'-I/usr/share/arduino/hardware/arduino/variants/leonardo'
p17
aS'-I/usr/share/arduino/libraries/Wire'
p18
aS'-I/usr/share/arduino/libraries/Wire/utility'
p19
aS'-I/usr/share/arduino/hardware/arduino/cores/arduino'
p20
atp21
Rp22
tp23
a(S'cc'
p24
S'/usr/bin/avr-gcc'
p25
tp26
a(S'arduino_libraries_dir'
p27
S'/usr/share/arduino/libraries'
p28
tp29
a(S'avrdude'
p30
S'/usr/share/arduino/hardware/tools/avrdude'
p31
tp32
a(S'ar'
p33
S'/usr/bin/avr-ar'
p34
tp35
a(S'names'
p36
(dp37
S'cpp'
p38
S'%s.cpp'
p39
sS'obj'
p40
S'%s.o'
p41
sS'deps'
p42
S'%s.d'
p43
sS'lib'
p44
S'lib%s.a'
p45
stp46
a(S'ldflags'
p47
g2
(g3
g4
(lp48
g6
aS'-Wl,-Os'
p49
aS'-Wl,--gc-sections'
p50
atp51
Rp52
tp53
a(S'arduino_lib_version'
p54
g2
(cino.environment
Version
p55
c__builtin__
tuple
p56
(I1
I0
I1
tp57
tp58
Rp59
tp60
a(S'objcopy'
p61
S'/usr/bin/avr-objcopy'
p62
tp63
a(S'board_models'
p64
cino.environment
BoardModels
p65
((lp66
(lp67
S'uno'
p68
a(dp69
S'build'
p70
(dp71
S'core'
p72
S'arduino'
p73
sS'mcu'
p74
S'atmega328p'
p75
sS'f_cpu'
p76
S'16000000L'
p77
sS'variant'
p78
S'standard'
p79
ssS'bootloader'
p80
(dp81
S'extended_fuses'
p82
S'0x05'
p83
sS'high_fuses'
p84
S'0xde'
p85
sS'low_fuses'
p86
S'0xff'
p87
sS'lock_bits'
p88
S'0x0F'
p89
sS'file'
p90
S'optiboot_atmega328.hex'
p91
sS'path'
p92
S'optiboot'
p93
sS'unlock_bits'
p94
S'0x3F'
p95
ssS'upload'
p96
(dp97
S'speed'
p98
S'115200'
p99
sS'maximum_size'
p100
S'32256'
p101
sS'protocol'
p102
S'arduino'
p103
ssS'name'
p104
S'Arduino Uno'
p105
sS'_coredir'
p106
S'/usr/share/arduino/hardware/arduino'
p107
saa(lp108
S'atmega328'
p109
a(dp110
S'build'
p111
(dp112
S'core'
p113
S'arduino'
p114
sS'mcu'
p115
S'atmega328p'
p116
sS'f_cpu'
p117
S'16000000L'
p118
sS'variant'
p119
S'standard'
p120
ssS'bootloader'
p121
(dp122
S'extended_fuses'
p123
S'0x05'
p124
sS'high_fuses'
p125
S'0xDA'
p126
sS'low_fuses'
p127
S'0xFF'
p128
sS'lock_bits'
p129
S'0x0F'
p130
sS'file'
p131
S'ATmegaBOOT_168_atmega328.hex'
p132
sS'path'
p133
S'atmega'
p134
sS'unlock_bits'
p135
S'0x3F'
p136
ssS'upload'
p137
(dp138
S'speed'
p139
S'57600'
p140
sS'maximum_size'
p141
S'30720'
p142
sS'protocol'
p143
S'arduino'
p144
ssS'name'
p145
S'Arduino Duemilanove w/ ATmega328'
p146
sg106
S'/usr/share/arduino/hardware/arduino'
p147
saa(lp148
S'diecimila'
p149
a(dp150
S'build'
p151
(dp152
S'core'
p153
S'arduino'
p154
sS'mcu'
p155
S'atmega168'
p156
sS'f_cpu'
p157
S'16000000L'
p158
sS'variant'
p159
S'standard'
p160
ssS'bootloader'
p161
(dp162
S'extended_fuses'
p163
S'0x00'
p164
sS'high_fuses'
p165
S'0xdd'
p166
sS'low_fuses'
p167
S'0xff'
p168
sS'lock_bits'
p169
S'0x0F'
p170
sS'file'
p171
S'ATmegaBOOT_168_diecimila.hex'
p172
sS'path'
p173
S'atmega'
p174
sS'unlock_bits'
p175
S'0x3F'
p176
ssS'upload'
p177
(dp178
S'speed'
p179
S'19200'
p180
sS'maximum_size'
p181
S'14336'
p182
sS'protocol'
p183
S'arduino'
p184
ssS'name'
p185
S'Arduino Diecimila or Duemilanove w/ ATmega168'
p186
sg106
S'/usr/share/arduino/hardware/arduino'
p187
saa(lp188
S'nano328'
p189
a(dp190
S'build'
p191
(dp192
S'core'
p193
S'arduino'
p194
sS'mcu'
p195
S'atmega328p'
p196
sS'f_cpu'
p197
S'16000000L'
p198
sS'variant'
p199
S'eightanaloginputs'
p200
ssS'bootloader'
p201
(dp202
S'extended_fuses'
p203
S'0x05'
p204
sS'high_fuses'
p205
S'0xDA'
p206
sS'low_fuses'
p207
S'0xFF'
p208
sS'lock_bits'
p209
S'0x0F'
p210
sS'file'
p211
S'ATmegaBOOT_168_atmega328.hex'
p212
sS'path'
p213
S'atmega'
p214
sS'unlock_bits'
p215
S'0x3F'
p216
ssS'upload'
p217
(dp218
S'speed'
p219
S'57600'
p220
sS'maximum_size'
p221
S'30720'
p222
sS'protocol'
p223
S'arduino'
p224
ssS'name'
p225
S'Arduino Nano w/ ATmega328'
p226
sg106
S'/usr/share/arduino/hardware/arduino'
p227
saa(lp228
S'nano'
p229
a(dp230
S'build'
p231
(dp232
S'core'
p233
S'arduino'
p234
sS'mcu'
p235
S'atmega168'
p236
sS'f_cpu'
p237
S'16000000L'
p238
sS'variant'
p239
S'eightanaloginputs'
p240
ssS'bootloader'
p241
(dp242
S'extended_fuses'
p243
S'0x00'
p244
sS'high_fuses'
p245
S'0xdd'
p246
sS'low_fuses'
p247
S'0xff'
p248
sS'lock_bits'
p249
S'0x0F'
p250
sS'file'
p251
S'ATmegaBOOT_168_diecimila.hex'
p252
sS'path'
p253
S'atmega'
p254
sS'unlock_bits'
p255
S'0x3F'
p256
ssS'upload'
p257
(dp258
S'speed'
p259
S'19200'
p260
sS'maximum_size'
p261
S'14336'
p262
sS'protocol'
p263
S'arduino'
p264
ssS'name'
p265
S'Arduino Nano w/ ATmega168'
p266
sg106
S'/usr/share/arduino/hardware/arduino'
p267
saa(lp268
S'mega2560'
p269
a(dp270
S'build'
p271
(dp272
S'core'
p273
S'arduino'
p274
sS'mcu'
p275
S'atmega2560'
p276
sS'f_cpu'
p277
S'16000000L'
p278
sS'variant'
p279
S'mega'
p280
ssS'bootloader'
p281
(dp282
S'extended_fuses'
p283
S'0xFD'
p284
sS'high_fuses'
p285
S'0xD8'
p286
sS'low_fuses'
p287
S'0xFF'
p288
sS'lock_bits'
p289
S'0x0F'
p290
sS'file'
p291
S'stk500boot_v2_mega2560.hex'
p292
sS'path'
p293
S'stk500v2'
p294
sS'unlock_bits'
p295
S'0x3F'
p296
ssS'upload'
p297
(dp298
S'speed'
p299
S'115200'
p300
sS'maximum_size'
p301
S'258048'
p302
sS'protocol'
p303
S'stk500v2'
p304
ssS'name'
p305
S'Arduino Mega 2560 or Mega ADK'
p306
sg106
S'/usr/share/arduino/hardware/arduino'
p307
saa(lp308
S'mega'
p309
a(dp310
S'build'
p311
(dp312
S'core'
p313
S'arduino'
p314
sS'mcu'
p315
S'atmega1280'
p316
sS'f_cpu'
p317
S'16000000L'
p318
sS'variant'
p319
S'mega'
p320
ssS'bootloader'
p321
(dp322
S'extended_fuses'
p323
S'0xF5'
p324
sS'high_fuses'
p325
S'0xDA'
p326
sS'low_fuses'
p327
S'0xFF'
p328
sS'lock_bits'
p329
S'0x0F'
p330
sS'file'
p331
S'ATmegaBOOT_168_atmega1280.hex'
p332
sS'path'
p333
S'atmega'
p334
sS'unlock_bits'
p335
S'0x3F'
p336
ssS'upload'
p337
(dp338
S'speed'
p339
S'57600'
p340
sS'maximum_size'
p341
S'126976'
p342
sS'protocol'
p343
S'arduino'
p344
ssS'name'
p345
S'Arduino Mega (ATmega1280)'
p346
sg106
S'/usr/share/arduino/hardware/arduino'
p347
saa(lp348
S'leonardo'
p349
a(dp350
S'build'
p351
(dp352
S'core'
p353
S'arduino'
p354
sS'f_cpu'
p355
S'16000000L'
p356
sS'vid'
p357
S'0x2341'
p358
sS'pid'
p359
S'0x8036'
p360
sS'variant'
p361
S'leonardo'
p362
sS'mcu'
p363
S'atmega32u4'
p364
ssS'bootloader'
p365
(dp366
S'extended_fuses'
p367
S'0xcb'
p368
sS'high_fuses'
p369
S'0xd8'
p370
sS'low_fuses'
p371
S'0xff'
p372
sS'lock_bits'
p373
S'0x2F'
p374
sS'file'
p375
S'Caterina-Leonardo.hex'
p376
sS'path'
p377
S'caterina'
p378
sS'unlock_bits'
p379
S'0x3F'
p380
ssS'upload'
p381
(dp382
S'speed'
p383
S'57600'
p384
sS'maximum_size'
p385
S'28672'
p386
sS'protocol'
p387
S'avr109'
p388
sS'disable_flushing'
p389
S'true'
p390
ssS'name'
p391
S'Arduino Leonardo'
p392
sg106
S'/usr/share/arduino/hardware/arduino'
p393
saa(lp394
S'mini328'
p395
a(dp396
S'build'
p397
(dp398
S'core'
p399
S'arduino'
p400
sS'mcu'
p401
S'atmega328p'
p402
sS'f_cpu'
p403
S'16000000L'
p404
sS'variant'
p405
S'eightanaloginputs'
p406
ssS'bootloader'
p407
(dp408
S'extended_fuses'
p409
S'0x05'
p410
sS'high_fuses'
p411
S'0xd8'
p412
sS'low_fuses'
p413
S'0xff'
p414
sS'lock_bits'
p415
S'0x0F'
p416
sS'file'
p417
S'optiboot_atmega328-Mini.hex'
p418
sS'path'
p419
S'optiboot'
p420
sS'unlock_bits'
p421
S'0x3F'
p422
ssS'upload'
p423
(dp424
S'speed'
p425
S'115200'
p426
sS'maximum_size'
p427
S'28672'
p428
sS'protocol'
p429
S'arduino'
p430
ssS'name'
p431
S'Arduino Mini w/ ATmega328'
p432
sg106
S'/usr/share/arduino/hardware/arduino'
p433
saa(lp434
S'mini'
p435
a(dp436
S'build'
p437
(dp438
S'core'
p439
S'arduino'
p440
sS'mcu'
p441
S'atmega168'
p442
sS'f_cpu'
p443
S'16000000L'
p444
sS'variant'
p445
S'eightanaloginputs'
p446
ssS'bootloader'
p447
(dp448
S'extended_fuses'
p449
S'0x00'
p450
sS'high_fuses'
p451
S'0xdd'
p452
sS'low_fuses'
p453
S'0xff'
p454
sS'lock_bits'
p455
S'0x0F'
p456
sS'file'
p457
S'ATmegaBOOT_168_ng.hex'
p458
sS'path'
p459
S'atmega'
p460
sS'unlock_bits'
p461
S'0x3F'
p462
ssS'upload'
p463
(dp464
S'speed'
p465
S'19200'
p466
sS'maximum_size'
p467
S'14336'
p468
sS'protocol'
p469
S'arduino'
p470
ssS'name'
p471
S'Arduino Mini w/ ATmega168'
p472
sg106
S'/usr/share/arduino/hardware/arduino'
p473
saa(lp474
S'ethernet'
p475
a(dp476
S'build'
p477
(dp478
S'f_cpu'
p479
S'16000000L'
p480
sS'mcu'
p481
S'atmega328p'
p482
sS'variant'
p483
S'standard'
p484
sS'core'
p485
S'arduino'
p486
ssS'bootloader'
p487
(dp488
S'extended_fuses'
p489
S'0x05'
p490
sS'high_fuses'
p491
S'0xde'
p492
sS'low_fuses'
p493
S'0xff'
p494
sS'lock_bits'
p495
S'0x0F'
p496
sS'file'
p497
S'optiboot_atmega328.hex'
p498
sS'path'
p499
S'optiboot'
p500
sS'unlock_bits'
p501
S'0x3F'
p502
ssS'upload'
p503
(dp504
S'speed'
p505
S'115200'
p506
sS'maximum_size'
p507
S'32256'
p508
sS'protocol'
p509
S'arduino'
p510
ssS'name'
p511
S'Arduino Ethernet'
p512
sg106
S'/usr/share/arduino/hardware/arduino'
p513
saa(lp514
S'fio'
p515
a(dp516
S'build'
p517
(dp518
S'core'
p519
S'arduino'
p520
sS'mcu'
p521
S'atmega328p'
p522
sS'f_cpu'
p523
S'8000000L'
p524
sS'variant'
p525
S'eightanaloginputs'
p526
ssS'bootloader'
p527
(dp528
S'extended_fuses'
p529
S'0x05'
p530
sS'high_fuses'
p531
S'0xDA'
p532
sS'low_fuses'
p533
S'0xFF'
p534
sS'lock_bits'
p535
S'0x0F'
p536
sS'file'
p537
S'ATmegaBOOT_168_atmega328_pro_8MHz.hex'
p538
sS'path'
p539
S'arduino:atmega'
p540
sS'unlock_bits'
p541
S'0x3F'
p542
ssS'upload'
p543
(dp544
S'speed'
p545
S'57600'
p546
sS'maximum_size'
p547
S'30720'
p548
sS'protocol'
p549
S'arduino'
p550
ssS'name'
p551
S'Arduino Fio'
p552
sg106
S'/usr/share/arduino/hardware/arduino'
p553
saa(lp554
S'bt328'
p555
a(dp556
S'build'
p557
(dp558
S'core'
p559
S'arduino'
p560
sS'mcu'
p561
S'atmega328p'
p562
sS'f_cpu'
p563
S'16000000L'
p564
sS'variant'
p565
S'eightanaloginputs'
p566
ssS'bootloader'
p567
(dp568
S'extended_fuses'
p569
S'0x05'
p570
sS'high_fuses'
p571
S'0xd8'
p572
sS'low_fuses'
p573
S'0xff'
p574
sS'lock_bits'
p575
S'0x0F'
p576
sS'file'
p577
S'ATmegaBOOT_168_atmega328_bt.hex'
p578
sS'path'
p579
S'bt'
p580
sS'unlock_bits'
p581
S'0x3F'
p582
ssS'upload'
p583
(dp584
S'speed'
p585
S'19200'
p586
sS'maximum_size'
p587
S'28672'
p588
sS'protocol'
p589
S'arduino'
p590
sS'disable_flushing'
p591
S'true'
p592
ssS'name'
p593
S'Arduino BT w/ ATmega328'
p594
sg106
S'/usr/share/arduino/hardware/arduino'
p595
saa(lp596
S'bt'
p597
a(dp598
S'build'
p599
(dp600
S'core'
p601
S'arduino'
p602
sS'mcu'
p603
S'atmega168'
p604
sS'f_cpu'
p605
S'16000000L'
p606
sS'variant'
p607
S'eightanaloginputs'
p608
ssS'bootloader'
p609
(dp610
S'extended_fuses'
p611
S'0x00'
p612
sS'high_fuses'
p613
S'0xdd'
p614
sS'low_fuses'
p615
S'0xff'
p616
sS'lock_bits'
p617
S'0x0F'
p618
sS'file'
p619
S'ATmegaBOOT_168.hex'
p620
sS'path'
p621
S'bt'
p622
sS'unlock_bits'
p623
S'0x3F'
p624
ssS'upload'
p625
(dp626
S'speed'
p627
S'19200'
p628
sS'maximum_size'
p629
S'14336'
p630
sS'protocol'
p631
S'arduino'
p632
sS'disable_flushing'
p633
S'true'
p634
ssS'name'
p635
S'Arduino BT w/ ATmega168'
p636
sg106
S'/usr/share/arduino/hardware/arduino'
p637
saa(lp638
S'lilypad328'
p639
a(dp640
S'build'
p641
(dp642
S'core'
p643
S'arduino'
p644
sS'mcu'
p645
S'atmega328p'
p646
sS'f_cpu'
p647
S'8000000L'
p648
sS'variant'
p649
S'standard'
p650
ssS'bootloader'
p651
(dp652
S'extended_fuses'
p653
S'0x05'
p654
sS'high_fuses'
p655
S'0xDA'
p656
sS'low_fuses'
p657
S'0xFF'
p658
sS'lock_bits'
p659
S'0x0F'
p660
sS'file'
p661
S'ATmegaBOOT_168_atmega328_pro_8MHz.hex'
p662
sS'path'
p663
S'atmega'
p664
sS'unlock_bits'
p665
S'0x3F'
p666
ssS'upload'
p667
(dp668
S'speed'
p669
S'57600'
p670
sS'maximum_size'
p671
S'30720'
p672
sS'protocol'
p673
S'arduino'
p674
ssS'name'
p675
S'LilyPad Arduino w/ ATmega328'
p676
sg106
S'/usr/share/arduino/hardware/arduino'
p677
saa(lp678
S'lilypad'
p679
a(dp680
S'build'
p681
(dp682
S'core'
p683
S'arduino'
p684
sS'mcu'
p685
S'atmega168'
p686
sS'f_cpu'
p687
S'8000000L'
p688
sS'variant'
p689
S'standard'
p690
ssS'bootloader'
p691
(dp692
S'extended_fuses'
p693
S'0x00'
p694
sS'high_fuses'
p695
S'0xdd'
p696
sS'low_fuses'
p697
S'0xe2'
p698
sS'lock_bits'
p699
S'0x0F'
p700
sS'file'
p701
S'LilyPadBOOT_168.hex'
p702
sS'path'
p703
S'lilypad'
p704
sS'unlock_bits'
p705
S'0x3F'
p706
ssS'upload'
p707
(dp708
S'speed'
p709
S'19200'
p710
sS'maximum_size'
p711
S'14336'
p712
sS'protocol'
p713
S'arduino'
p714
ssS'name'
p715
S'LilyPad Arduino w/ ATmega168'
p716
sg106
S'/usr/share/arduino/hardware/arduino'
p717
saa(lp718
S'pro5v328'
p719
a(dp720
S'build'
p721
(dp722
S'core'
p723
S'arduino'
p724
sS'mcu'
p725
S'atmega328p'
p726
sS'f_cpu'
p727
S'16000000L'
p728
sS'variant'
p729
S'standard'
p730
ssS'bootloader'
p731
(dp732
S'extended_fuses'
p733
S'0x05'
p734
sS'high_fuses'
p735
S'0xDA'
p736
sS'low_fuses'
p737
S'0xFF'
p738
sS'lock_bits'
p739
S'0x0F'
p740
sS'file'
p741
S'ATmegaBOOT_168_atmega328.hex'
p742
sS'path'
p743
S'atmega'
p744
sS'unlock_bits'
p745
S'0x3F'
p746
ssS'upload'
p747
(dp748
S'speed'
p749
S'57600'
p750
sS'maximum_size'
p751
S'30720'
p752
sS'protocol'
p753
S'arduino'
p754
ssS'name'
p755
S'Arduino Pro or Pro Mini (5V, 16 MHz) w/ ATmega328'
p756
sg106
S'/usr/share/arduino/hardware/arduino'
p757
saa(lp758
S'pro5v'
p759
a(dp760
S'build'
p761
(dp762
S'core'
p763
S'arduino'
p764
sS'mcu'
p765
S'atmega168'
p766
sS'f_cpu'
p767
S'16000000L'
p768
sS'variant'
p769
S'standard'
p770
ssS'bootloader'
p771
(dp772
S'extended_fuses'
p773
S'0x00'
p774
sS'high_fuses'
p775
S'0xdd'
p776
sS'low_fuses'
p777
S'0xff'
p778
sS'lock_bits'
p779
S'0x0F'
p780
sS'file'
p781
S'ATmegaBOOT_168_diecimila.hex'
p782
sS'path'
p783
S'atmega'
p784
sS'unlock_bits'
p785
S'0x3F'
p786
ssS'upload'
p787
(dp788
S'speed'
p789
S'19200'
p790
sS'maximum_size'
p791
S'14336'
p792
sS'protocol'
p793
S'arduino'
p794
ssS'name'
p795
S'Arduino Pro or Pro Mini (5V, 16 MHz) w/ ATmega168'
p796
sg106
S'/usr/share/arduino/hardware/arduino'
p797
saa(lp798
S'pro328'
p799
a(dp800
S'build'
p801
(dp802
S'core'
p803
S'arduino'
p804
sS'mcu'
p805
S'atmega328p'
p806
sS'f_cpu'
p807
S'8000000L'
p808
sS'variant'
p809
S'standard'
p810
ssS'bootloader'
p811
(dp812
S'extended_fuses'
p813
S'0x05'
p814
sS'high_fuses'
p815
S'0xDA'
p816
sS'low_fuses'
p817
S'0xFF'
p818
sS'lock_bits'
p819
S'0x0F'
p820
sS'file'
p821
S'ATmegaBOOT_168_atmega328_pro_8MHz.hex'
p822
sS'path'
p823
S'atmega'
p824
sS'unlock_bits'
p825
S'0x3F'
p826
ssS'upload'
p827
(dp828
S'speed'
p829
S'57600'
p830
sS'maximum_size'
p831
S'30720'
p832
sS'protocol'
p833
S'arduino'
p834
ssS'name'
p835
S'Arduino Pro or Pro Mini (3.3V, 8 MHz) w/ ATmega328'
p836
sg106
S'/usr/share/arduino/hardware/arduino'
p837
saa(lp838
S'pro'
p839
a(dp840
S'build'
p841
(dp842
S'core'
p843
S'arduino'
p844
sS'mcu'
p845
S'atmega168'
p846
sS'f_cpu'
p847
S'8000000L'
p848
sS'variant'
p849
S'standard'
p850
ssS'bootloader'
p851
(dp852
S'extended_fuses'
p853
S'0x00'
p854
sS'high_fuses'
p855
S'0xdd'
p856
sS'low_fuses'
p857
S'0xc6'
p858
sS'lock_bits'
p859
S'0x0F'
p860
sS'file'
p861
S'ATmegaBOOT_168_pro_8MHz.hex'
p862
sS'path'
p863
S'atmega'
p864
sS'unlock_bits'
p865
S'0x3F'
p866
ssS'upload'
p867
(dp868
S'speed'
p869
S'19200'
p870
sS'maximum_size'
p871
S'14336'
p872
sS'protocol'
p873
S'arduino'
p874
ssS'name'
p875
S'Arduino Pro or Pro Mini (3.3V, 8 MHz) w/ ATmega168'
p876
sg106
S'/usr/share/arduino/hardware/arduino'
p877
saa(lp878
S'atmega168'
p879
a(dp880
S'build'
p881
(dp882
S'core'
p883
S'arduino'
p884
sS'mcu'
p885
S'atmega168'
p886
sS'f_cpu'
p887
S'16000000L'
p888
sS'variant'
p889
S'standard'
p890
ssS'bootloader'
p891
(dp892
S'extended_fuses'
p893
S'0x00'
p894
sS'high_fuses'
p895
S'0xdd'
p896
sS'low_fuses'
p897
S'0xff'
p898
sS'lock_bits'
p899
S'0x0F'
p900
sS'file'
p901
S'ATmegaBOOT_168_ng.hex'
p902
sS'path'
p903
S'atmega'
p904
sS'unlock_bits'
p905
S'0x3F'
p906
ssS'upload'
p907
(dp908
S'speed'
p909
S'19200'
p910
sS'maximum_size'
p911
S'14336'
p912
sS'protocol'
p913
S'arduino'
p914
ssS'name'
p915
S'Arduino NG or older w/ ATmega168'
p916
sg106
S'/usr/share/arduino/hardware/arduino'
p917
saa(lp918
S'atmega8'
p919
a(dp920
S'build'
p921
(dp922
S'core'
p923
S'arduino'
p924
sS'mcu'
p925
S'atmega8'
p926
sS'f_cpu'
p927
S'16000000L'
p928
sS'variant'
p929
S'standard'
p930
ssS'bootloader'
p931
(dp932
S'high_fuses'
p933
S'0xca'
p934
sS'low_fuses'
p935
S'0xdf'
p936
sS'lock_bits'
p937
S'0x0F'
p938
sS'file'
p939
S'ATmegaBOOT.hex'
p940
sS'path'
p941
S'atmega8'
p942
sS'unlock_bits'
p943
S'0x3F'
p944
ssS'upload'
p945
(dp946
S'speed'
p947
S'19200'
p948
sS'maximum_size'
p949
S'7168'
p950
sS'protocol'
p951
S'arduino'
p952
ssS'name'
p953
S'Arduino NG or older w/ ATmega8'
p954
sg106
S'/usr/share/arduino/hardware/arduino'
p955
saatp956
Rp957
(dp958
S'default'
p959
S'uno'
p960
sbtp961
a(S'used_libs'
p962
(lp963
S'/usr/share/arduino/libraries/Wire'
p964
aS'/usr/share/arduino/hardware/arduino/cores/arduino'
p965
atp966
a(S'make'
p967
S'/usr/bin/make'
p968
tp969
a(S'build_dir'
p970
S'.build/uno'
p971
tp972
a(S'cxx'
p973
S'/usr/bin/avr-g++'
p974
tp975
a(S'cflags'
p976
g2
(g3
g4
(lp977
tp978
Rp979
tp980
a(S'cxxflags'
p981
g2
(g3
g4
(lp982
S'-fno-exceptions'
p983
atp984
Rp985
tp986
a(S'arduino_variants_dir'
p987
S'/usr/share/arduino/hardware/arduino/variants'
p988
tp989
a(S'serial'
p990
S'/usr/bin/picocom'
p991
tp992
a(S'stty'
p993
S'/bin/stty'
p994
tp995
a(S'version.txt'
p996
S'/usr/share/arduino/lib/version.txt'
p997
tp998
a(S'arduino_core_dir'
p999
g965
tp1000
a(S'boards.txt'
p1001
(lp1002
S'/usr/share/arduino/hardware/arduino/boards.txt'
p1003
atp1004
a(S'avrdude.conf'
p1005
S'/usr/share/arduino/hardware/tools/avrdude.conf'
p1006
tp1007
a(S'deps'
p1008
g2
(g3
g4
(lp1009
S'.build/leonardo/src/dependencies.d'
p1010
aS'.build/leonardo/arduino/dependencies.d'
p1011
aS'.build/leonardo/Wire/dependencies.d'
p1012
atp1013
Rp1014
tp1015
a.